ccopy_reg
_reconstructor
p0
(csmartshooter.session
FlexSession
p1
c__builtin__
object
p2
Ntp3
Rp4
(dp5
S'mType'
p6
S'Mesh'
p7
sS'mShootFolder'
p8
S''
p9
sS'mActiveTakePath'
p10
g9
sS'mActivePath'
p11
g9
sS'mRootFolder'
p12
S'Z:\\'
p13
sb.